; ModuleID = '51/771.c'
source_filename = "51/771.c"
target datalayout = "e-m:e-p270:32:32-p271:32:32-p272:64:64-i64:64-f80:128-n8:16:32:64-S128"
target triple = "x86_64-pc-linux-gnu"

@.str = private unnamed_addr constant [3 x i8] c"%d\00", align 1
@.str.1 = private unnamed_addr constant [3 x i8] c"%s\00", align 1
@.str.2 = private unnamed_addr constant [4 x i8] c"NO\0A\00", align 1
@.str.3 = private unnamed_addr constant [4 x i8] c"%d\0A\00", align 1
@.str.4 = private unnamed_addr constant [3 x i8] c"%c\00", align 1
@.str.5 = private unnamed_addr constant [4 x i8] c"%c\0A\00", align 1

; Function Attrs: noinline nounwind uwtable
define dso_local i32 @main() #0 {
  %1 = alloca i32, align 4
  %2 = alloca i32, align 4
  %3 = alloca i32, align 4
  %4 = alloca i32, align 4
  %5 = alloca i32, align 4
  %6 = alloca [500 x i8], align 16
  %7 = alloca i32, align 4
  %8 = alloca i32, align 4
  %9 = alloca [500 x i32], align 16
  %10 = alloca [100 x i32], align 16
  store i32 0, i32* %1, align 4
  store i32 0, i32* %2, align 4
  store i32 0, i32* %3, align 4
  store i32 0, i32* %4, align 4
  store i32 0, i32* %5, align 4
  %11 = bitcast [500 x i8]* %6 to i8*
  call void @llvm.memset.p0i8.i64(i8* align 16 %11, i8 0, i64 500, i1 false)
  %12 = bitcast i8* %11 to <{ i8, [499 x i8] }>*
  %13 = getelementptr inbounds <{ i8, [499 x i8] }>, <{ i8, [499 x i8] }>* %12, i32 0, i32 0
  store i8 48, i8* %13, align 16
  %14 = call i32 (i8*, ...) @__isoc99_scanf(i8* getelementptr inbounds ([3 x i8], [3 x i8]* @.str, i64 0, i64 0), i32* %2)
  %15 = getelementptr inbounds [500 x i8], [500 x i8]* %6, i64 0, i64 0
  %16 = call i32 (i8*, ...) @__isoc99_scanf(i8* getelementptr inbounds ([3 x i8], [3 x i8]* @.str.1, i64 0, i64 0), i8* %15)
  store i32 0, i32* %7, align 4
  store i32 0, i32* %8, align 4
  %17 = bitcast [500 x i32]* %9 to i8*
  call void @llvm.memset.p0i8.i64(i8* align 16 %17, i8 0, i64 2000, i1 false)
  %18 = bitcast [100 x i32]* %10 to i8*
  call void @llvm.memset.p0i8.i64(i8* align 16 %18, i8 0, i64 400, i1 false)
  %19 = getelementptr inbounds [500 x i8], [500 x i8]* %6, i64 0, i64 0
  %20 = call i64 @strlen(i8* %19) #4
  %21 = trunc i64 %20 to i32
  store i32 %21, i32* %7, align 4
  store i32 0, i32* %3, align 4
  br label %22

22:                                               ; preds = %80, %0
  %23 = load i32, i32* %3, align 4
  %24 = load i32, i32* %7, align 4
  %25 = load i32, i32* %2, align 4
  %26 = sub nsw i32 %24, %25
  %27 = add nsw i32 %26, 1
  %28 = icmp slt i32 %23, %27
  br i1 %28, label %29, label %83

29:                                               ; preds = %22
  %30 = load i32, i32* %3, align 4
  %31 = add nsw i32 %30, 1
  store i32 %31, i32* %4, align 4
  br label %32

32:                                               ; preds = %76, %29
  %33 = load i32, i32* %4, align 4
  %34 = load i32, i32* %7, align 4
  %35 = load i32, i32* %2, align 4
  %36 = sub nsw i32 %34, %35
  %37 = add nsw i32 %36, 1
  %38 = icmp slt i32 %33, %37
  br i1 %38, label %39, label %79

39:                                               ; preds = %32
  store i32 0, i32* %5, align 4
  br label %40

40:                                               ; preds = %64, %39
  %41 = load i32, i32* %5, align 4
  %42 = load i32, i32* %2, align 4
  %43 = icmp slt i32 %41, %42
  br i1 %43, label %44, label %65

44:                                               ; preds = %40
  %45 = load i32, i32* %3, align 4
  %46 = load i32, i32* %5, align 4
  %47 = add nsw i32 %45, %46
  %48 = sext i32 %47 to i64
  %49 = getelementptr inbounds [500 x i8], [500 x i8]* %6, i64 0, i64 %48
  %50 = load i8, i8* %49, align 1
  %51 = sext i8 %50 to i32
  %52 = load i32, i32* %4, align 4
  %53 = load i32, i32* %5, align 4
  %54 = add nsw i32 %52, %53
  %55 = sext i32 %54 to i64
  %56 = getelementptr inbounds [500 x i8], [500 x i8]* %6, i64 0, i64 %55
  %57 = load i8, i8* %56, align 1
  %58 = sext i8 %57 to i32
  %59 = icmp eq i32 %51, %58
  br i1 %59, label %60, label %63

60:                                               ; preds = %44
  %61 = load i32, i32* %5, align 4
  %62 = add nsw i32 %61, 1
  store i32 %62, i32* %5, align 4
  br label %64

63:                                               ; preds = %44
  br label %65

64:                                               ; preds = %60
  br label %40

65:                                               ; preds = %63, %40
  %66 = load i32, i32* %5, align 4
  %67 = load i32, i32* %2, align 4
  %68 = icmp eq i32 %66, %67
  br i1 %68, label %69, label %75

69:                                               ; preds = %65
  %70 = load i32, i32* %3, align 4
  %71 = sext i32 %70 to i64
  %72 = getelementptr inbounds [500 x i32], [500 x i32]* %9, i64 0, i64 %71
  %73 = load i32, i32* %72, align 4
  %74 = add nsw i32 %73, 1
  store i32 %74, i32* %72, align 4
  br label %75

75:                                               ; preds = %69, %65
  br label %76

76:                                               ; preds = %75
  %77 = load i32, i32* %4, align 4
  %78 = add nsw i32 %77, 1
  store i32 %78, i32* %4, align 4
  br label %32

79:                                               ; preds = %32
  br label %80

80:                                               ; preds = %79
  %81 = load i32, i32* %3, align 4
  %82 = add nsw i32 %81, 1
  store i32 %82, i32* %3, align 4
  br label %22

83:                                               ; preds = %22
  store i32 0, i32* %5, align 4
  store i32 0, i32* %3, align 4
  br label %84

84:                                               ; preds = %127, %83
  %85 = load i32, i32* %3, align 4
  %86 = load i32, i32* %7, align 4
  %87 = load i32, i32* %2, align 4
  %88 = sub nsw i32 %86, %87
  %89 = add nsw i32 %88, 1
  %90 = icmp slt i32 %85, %89
  br i1 %90, label %91, label %130

91:                                               ; preds = %84
  %92 = load i32, i32* %3, align 4
  %93 = sext i32 %92 to i64
  %94 = getelementptr inbounds [500 x i32], [500 x i32]* %9, i64 0, i64 %93
  %95 = load i32, i32* %94, align 4
  %96 = load i32, i32* %8, align 4
  %97 = icmp sgt i32 %95, %96
  br i1 %97, label %98, label %111

98:                                               ; preds = %91
  store i32 0, i32* %5, align 4
  %99 = getelementptr inbounds [100 x i32], [100 x i32]* %10, i64 0, i64 0
  %100 = bitcast i32* %99 to i8*
  call void @llvm.memset.p0i8.i64(i8* align 16 %100, i8 0, i64 400, i1 false)
  %101 = load i32, i32* %3, align 4
  %102 = sext i32 %101 to i64
  %103 = getelementptr inbounds [500 x i32], [500 x i32]* %9, i64 0, i64 %102
  %104 = load i32, i32* %103, align 4
  store i32 %104, i32* %8, align 4
  %105 = load i32, i32* %3, align 4
  %106 = load i32, i32* %5, align 4
  %107 = sext i32 %106 to i64
  %108 = getelementptr inbounds [100 x i32], [100 x i32]* %10, i64 0, i64 %107
  store i32 %105, i32* %108, align 4
  %109 = load i32, i32* %5, align 4
  %110 = add nsw i32 %109, 1
  store i32 %110, i32* %5, align 4
  br label %126

111:                                              ; preds = %91
  %112 = load i32, i32* %3, align 4
  %113 = sext i32 %112 to i64
  %114 = getelementptr inbounds [500 x i32], [500 x i32]* %9, i64 0, i64 %113
  %115 = load i32, i32* %114, align 4
  %116 = load i32, i32* %8, align 4
  %117 = icmp eq i32 %115, %116
  br i1 %117, label %118, label %125

118:                                              ; preds = %111
  %119 = load i32, i32* %3, align 4
  %120 = load i32, i32* %5, align 4
  %121 = sext i32 %120 to i64
  %122 = getelementptr inbounds [100 x i32], [100 x i32]* %10, i64 0, i64 %121
  store i32 %119, i32* %122, align 4
  %123 = load i32, i32* %5, align 4
  %124 = add nsw i32 %123, 1
  store i32 %124, i32* %5, align 4
  br label %125

125:                                              ; preds = %118, %111
  br label %126

126:                                              ; preds = %125, %98
  br label %127

127:                                              ; preds = %126
  %128 = load i32, i32* %3, align 4
  %129 = add nsw i32 %128, 1
  store i32 %129, i32* %3, align 4
  br label %84

130:                                              ; preds = %84
  %131 = getelementptr inbounds [100 x i32], [100 x i32]* %10, i64 0, i64 0
  %132 = load i32, i32* %131, align 16
  %133 = sext i32 %132 to i64
  %134 = getelementptr inbounds [500 x i32], [500 x i32]* %9, i64 0, i64 %133
  %135 = load i32, i32* %134, align 4
  %136 = icmp eq i32 %135, 0
  br i1 %136, label %137, label %139

137:                                              ; preds = %130
  %138 = call i32 (i8*, ...) @printf(i8* getelementptr inbounds ([4 x i8], [4 x i8]* @.str.2, i64 0, i64 0))
  br label %188

139:                                              ; preds = %130
  %140 = getelementptr inbounds [100 x i32], [100 x i32]* %10, i64 0, i64 0
  %141 = load i32, i32* %140, align 16
  %142 = sext i32 %141 to i64
  %143 = getelementptr inbounds [500 x i32], [500 x i32]* %9, i64 0, i64 %142
  %144 = load i32, i32* %143, align 4
  %145 = add nsw i32 %144, 1
  %146 = call i32 (i8*, ...) @printf(i8* getelementptr inbounds ([4 x i8], [4 x i8]* @.str.3, i64 0, i64 0), i32 %145)
  store i32 0, i32* %3, align 4
  br label %147

147:                                              ; preds = %181, %139
  %148 = load i32, i32* %3, align 4
  %149 = sext i32 %148 to i64
  %150 = getelementptr inbounds [100 x i32], [100 x i32]* %10, i64 0, i64 %149
  %151 = load i32, i32* %150, align 4
  store i32 %151, i32* %4, align 4
  br label %152

152:                                              ; preds = %169, %147
  %153 = load i32, i32* %4, align 4
  %154 = load i32, i32* %3, align 4
  %155 = sext i32 %154 to i64
  %156 = getelementptr inbounds [100 x i32], [100 x i32]* %10, i64 0, i64 %155
  %157 = load i32, i32* %156, align 4
  %158 = load i32, i32* %2, align 4
  %159 = add nsw i32 %157, %158
  %160 = sub nsw i32 %159, 1
  %161 = icmp slt i32 %153, %160
  br i1 %161, label %162, label %172

162:                                              ; preds = %152
  %163 = load i32, i32* %4, align 4
  %164 = sext i32 %163 to i64
  %165 = getelementptr inbounds [500 x i8], [500 x i8]* %6, i64 0, i64 %164
  %166 = load i8, i8* %165, align 1
  %167 = sext i8 %166 to i32
  %168 = call i32 (i8*, ...) @printf(i8* getelementptr inbounds ([3 x i8], [3 x i8]* @.str.4, i64 0, i64 0), i32 %167)
  br label %169

169:                                              ; preds = %162
  %170 = load i32, i32* %4, align 4
  %171 = add nsw i32 %170, 1
  store i32 %171, i32* %4, align 4
  br label %152

172:                                              ; preds = %152
  %173 = load i32, i32* %4, align 4
  %174 = sext i32 %173 to i64
  %175 = getelementptr inbounds [500 x i8], [500 x i8]* %6, i64 0, i64 %174
  %176 = load i8, i8* %175, align 1
  %177 = sext i8 %176 to i32
  %178 = call i32 (i8*, ...) @printf(i8* getelementptr inbounds ([4 x i8], [4 x i8]* @.str.5, i64 0, i64 0), i32 %177)
  %179 = load i32, i32* %3, align 4
  %180 = add nsw i32 %179, 1
  store i32 %180, i32* %3, align 4
  br label %181

181:                                              ; preds = %172
  %182 = load i32, i32* %3, align 4
  %183 = sext i32 %182 to i64
  %184 = getelementptr inbounds [100 x i32], [100 x i32]* %10, i64 0, i64 %183
  %185 = load i32, i32* %184, align 4
  %186 = icmp ne i32 %185, 0
  br i1 %186, label %147, label %187

187:                                              ; preds = %181
  br label %188

188:                                              ; preds = %187, %137
  ret i32 0
}

; Function Attrs: argmemonly nounwind willreturn
declare void @llvm.memset.p0i8.i64(i8* nocapture writeonly, i8, i64, i1 immarg) #1

declare dso_local i32 @__isoc99_scanf(i8*, ...) #2

; Function Attrs: nounwind readonly
declare dso_local i64 @strlen(i8*) #3

declare dso_local i32 @printf(i8*, ...) #2


!llvm.module.flags = !{!0}
!llvm.ident = !{!1}

!0 = !{i32 1, !"wchar_size", i32 4}
!1 = !{!"clang version 10.0.0-4ubuntu1 "}
